ARM GAS  C:\Users\james\AppData\Local\Temp\ccztrFmK.s 			page 1


   1              		.cpu cortex-m3
   2              		.arch armv7-m
   3              		.fpu softvfp
   4              		.eabi_attribute 20, 1
   5              		.eabi_attribute 21, 1
   6              		.eabi_attribute 23, 3
   7              		.eabi_attribute 24, 1
   8              		.eabi_attribute 25, 1
   9              		.eabi_attribute 26, 1
  10              		.eabi_attribute 30, 1
  11              		.eabi_attribute 34, 1
  12              		.eabi_attribute 18, 4
  13              		.file	"software_timer.c"
  14              		.text
  15              	.Ltext0:
  16              		.cfi_sections	.debug_frame
  17              		.section	.text.setTimer1,"ax",%progbits
  18              		.align	1
  19              		.global	setTimer1
  20              		.syntax unified
  21              		.thumb
  22              		.thumb_func
  24              	setTimer1:
  25              	.LVL0:
  26              	.LFB0:
  27              		.file 1 "Core/Src/software_timer.c"
   1:Core/Src/software_timer.c **** /*
   2:Core/Src/software_timer.c ****  * software_timer.c
   3:Core/Src/software_timer.c ****  *
   4:Core/Src/software_timer.c ****  *  Created on: Sep 24, 2022
   5:Core/Src/software_timer.c ****  *      Author: KAI
   6:Core/Src/software_timer.c ****  */
   7:Core/Src/software_timer.c **** 
   8:Core/Src/software_timer.c **** #include "software_timer.h"
   9:Core/Src/software_timer.c **** 
  10:Core/Src/software_timer.c **** int timer1_counter = 0;
  11:Core/Src/software_timer.c **** int timer1_flag = 0;
  12:Core/Src/software_timer.c **** 
  13:Core/Src/software_timer.c **** void setTimer1(int duration)
  14:Core/Src/software_timer.c **** {
  28              		.loc 1 14 1 view -0
  29              		.cfi_startproc
  30              		@ args = 0, pretend = 0, frame = 0
  31              		@ frame_needed = 0, uses_anonymous_args = 0
  32              		@ link register save eliminated.
  15:Core/Src/software_timer.c **** 	timer1_counter = duration;
  33              		.loc 1 15 2 view .LVU1
  34              		.loc 1 15 17 is_stmt 0 view .LVU2
  35 0000 024B     		ldr	r3, .L2
  36 0002 1860     		str	r0, [r3]
  16:Core/Src/software_timer.c **** 	timer1_flag = 0;
  37              		.loc 1 16 2 is_stmt 1 view .LVU3
  38              		.loc 1 16 14 is_stmt 0 view .LVU4
  39 0004 024B     		ldr	r3, .L2+4
  40 0006 0022     		movs	r2, #0
  41 0008 1A60     		str	r2, [r3]
  17:Core/Src/software_timer.c **** }
ARM GAS  C:\Users\james\AppData\Local\Temp\ccztrFmK.s 			page 2


  42              		.loc 1 17 1 view .LVU5
  43 000a 7047     		bx	lr
  44              	.L3:
  45              		.align	2
  46              	.L2:
  47 000c 00000000 		.word	.LANCHOR0
  48 0010 00000000 		.word	.LANCHOR1
  49              		.cfi_endproc
  50              	.LFE0:
  52              		.section	.text.timerRun,"ax",%progbits
  53              		.align	1
  54              		.global	timerRun
  55              		.syntax unified
  56              		.thumb
  57              		.thumb_func
  59              	timerRun:
  60              	.LFB1:
  18:Core/Src/software_timer.c **** void timerRun()
  19:Core/Src/software_timer.c **** {
  61              		.loc 1 19 1 is_stmt 1 view -0
  62              		.cfi_startproc
  63              		@ args = 0, pretend = 0, frame = 0
  64              		@ frame_needed = 0, uses_anonymous_args = 0
  65              		@ link register save eliminated.
  20:Core/Src/software_timer.c **** 	if(timer1_counter > 0)
  66              		.loc 1 20 2 view .LVU7
  67              		.loc 1 20 20 is_stmt 0 view .LVU8
  68 0000 064B     		ldr	r3, .L7
  69 0002 1B68     		ldr	r3, [r3]
  70              		.loc 1 20 4 view .LVU9
  71 0004 002B     		cmp	r3, #0
  72 0006 04DD     		ble	.L4
  21:Core/Src/software_timer.c **** 	{
  22:Core/Src/software_timer.c **** 		timer1_counter--;
  73              		.loc 1 22 3 is_stmt 1 view .LVU10
  74              		.loc 1 22 17 is_stmt 0 view .LVU11
  75 0008 013B     		subs	r3, r3, #1
  76 000a 044A     		ldr	r2, .L7
  77 000c 1360     		str	r3, [r2]
  23:Core/Src/software_timer.c **** 		if(timer1_counter <= 0){
  78              		.loc 1 23 3 is_stmt 1 view .LVU12
  79              		.loc 1 23 5 is_stmt 0 view .LVU13
  80 000e 002B     		cmp	r3, #0
  81 0010 00DD     		ble	.L6
  82              	.L4:
  24:Core/Src/software_timer.c **** 			timer1_flag = 1;
  25:Core/Src/software_timer.c **** 		}
  26:Core/Src/software_timer.c **** 	}
  27:Core/Src/software_timer.c **** }
  83              		.loc 1 27 1 view .LVU14
  84 0012 7047     		bx	lr
  85              	.L6:
  24:Core/Src/software_timer.c **** 			timer1_flag = 1;
  86              		.loc 1 24 4 is_stmt 1 view .LVU15
  24:Core/Src/software_timer.c **** 			timer1_flag = 1;
  87              		.loc 1 24 16 is_stmt 0 view .LVU16
  88 0014 024B     		ldr	r3, .L7+4
ARM GAS  C:\Users\james\AppData\Local\Temp\ccztrFmK.s 			page 3


  89 0016 0122     		movs	r2, #1
  90 0018 1A60     		str	r2, [r3]
  91              		.loc 1 27 1 view .LVU17
  92 001a FAE7     		b	.L4
  93              	.L8:
  94              		.align	2
  95              	.L7:
  96 001c 00000000 		.word	.LANCHOR0
  97 0020 00000000 		.word	.LANCHOR1
  98              		.cfi_endproc
  99              	.LFE1:
 101              		.global	timer1_flag
 102              		.global	timer1_counter
 103              		.section	.bss.timer1_counter,"aw",%nobits
 104              		.align	2
 105              		.set	.LANCHOR0,. + 0
 108              	timer1_counter:
 109 0000 00000000 		.space	4
 110              		.section	.bss.timer1_flag,"aw",%nobits
 111              		.align	2
 112              		.set	.LANCHOR1,. + 0
 115              	timer1_flag:
 116 0000 00000000 		.space	4
 117              		.text
 118              	.Letext0:
 119              		.file 2 "Core/Inc/software_timer.h"
ARM GAS  C:\Users\james\AppData\Local\Temp\ccztrFmK.s 			page 4


DEFINED SYMBOLS
                            *ABS*:00000000 software_timer.c
C:\Users\james\AppData\Local\Temp\ccztrFmK.s:18     .text.setTimer1:00000000 $t
C:\Users\james\AppData\Local\Temp\ccztrFmK.s:24     .text.setTimer1:00000000 setTimer1
C:\Users\james\AppData\Local\Temp\ccztrFmK.s:47     .text.setTimer1:0000000c $d
C:\Users\james\AppData\Local\Temp\ccztrFmK.s:53     .text.timerRun:00000000 $t
C:\Users\james\AppData\Local\Temp\ccztrFmK.s:59     .text.timerRun:00000000 timerRun
C:\Users\james\AppData\Local\Temp\ccztrFmK.s:96     .text.timerRun:0000001c $d
C:\Users\james\AppData\Local\Temp\ccztrFmK.s:115    .bss.timer1_flag:00000000 timer1_flag
C:\Users\james\AppData\Local\Temp\ccztrFmK.s:108    .bss.timer1_counter:00000000 timer1_counter
C:\Users\james\AppData\Local\Temp\ccztrFmK.s:104    .bss.timer1_counter:00000000 $d
C:\Users\james\AppData\Local\Temp\ccztrFmK.s:111    .bss.timer1_flag:00000000 $d

NO UNDEFINED SYMBOLS
